; Function Attrs: mustprogress uwtable
define hidden noundef ptr @_ZN13pdecl_manager20mk_pconstructor_declEjRK6symbolS2_jPKP14paccessor_decl(ptr nocapture noundef nonnull align 8 dereferenceable(192) %this, i32 noundef %num_params, ptr nocapture noundef nonnull readonly align 8 dereferenceable(8) %s, ptr nocapture noundef nonnull readonly align 8 dereferenceable(8) %r, i32 noundef %num, ptr nocapture noundef readonly %as) local_unnamed_addr #3 align 2 personality ptr @__gxx_personality_v0 {
entry:
  %m_allocator.i = getelementptr inbounds i8, ptr %this, i64 8
  %0 = load ptr, ptr %m_allocator.i, align 8
  %call2 = tail call noundef ptr @_ZN22small_object_allocator8allocateEm(ptr noundef nonnull align 8 dereferenceable(520) %0, i64 noundef 48)
  %m_id_gen = getelementptr inbounds i8, ptr %this, i64 16
  %m_free_ids.i = getelementptr inbounds i8, ptr %this, i64 24
  %1 = load ptr, ptr %m_free_ids.i, align 8
  %cmp.i.i = icmp eq ptr %1, null
  br i1 %cmp.i.i, label %if.then.i, label %_ZNK6vectorIjLb0EjE5emptyEv.exit.i

_ZNK6vectorIjLb0EjE5emptyEv.exit.i:               ; preds = %entry
  %arrayidx.i.i = getelementptr inbounds i8, ptr %1, i64 -4
  %2 = load i32, ptr %arrayidx.i.i, align 4
  %cmp3.i.i = icmp eq i32 %2, 0
  br i1 %cmp3.i.i, label %if.then.i, label %_ZN6vectorIjLb0EjE4backEv.exit.i

if.then.i:                                        ; preds = %_ZNK6vectorIjLb0EjE5emptyEv.exit.i, %entry
  %3 = load i32, ptr %m_id_gen, align 8
  %inc.i = add i32 %3, 1
  store i32 %inc.i, ptr %m_id_gen, align 8
  br label %_ZN6id_gen2mkEv.exit

_ZN6vectorIjLb0EjE4backEv.exit.i:                 ; preds = %_ZNK6vectorIjLb0EjE5emptyEv.exit.i
  %4 = add i32 %2, -1
  %5 = zext i32 %4 to i64
  %arrayidx.i1.i.i = getelementptr inbounds i32, ptr %1, i64 %5
  %6 = load i32, ptr %arrayidx.i1.i.i, align 4
  store i32 %4, ptr %arrayidx.i.i, align 4
  br label %_ZN6id_gen2mkEv.exit

_ZN6id_gen2mkEv.exit:                             ; preds = %if.then.i, %_ZN6vectorIjLb0EjE4backEv.exit.i
  %r.0.i = phi i32 [ %3, %if.then.i ], [ %6, %_ZN6vectorIjLb0EjE4backEv.exit.i ]
  %m_id.i.i = getelementptr inbounds i8, ptr %call2, i64 8
  store i32 %r.0.i, ptr %m_id.i.i, align 8
  %m_num_params.i.i = getelementptr inbounds i8, ptr %call2, i64 12
  store i32 %num_params, ptr %m_num_params.i.i, align 4
  %m_ref_count.i.i = getelementptr inbounds i8, ptr %call2, i64 16
  store i32 0, ptr %m_ref_count.i.i, align 8
  store ptr getelementptr inbounds ({ [10 x ptr] }, ptr @_ZTV17pconstructor_decl, i64 0, i32 0, i64 2), ptr %call2, align 8
  %m_name.i = getelementptr inbounds i8, ptr %call2, i64 24
  %7 = load i64, ptr %s, align 8
  store i64 %7, ptr %m_name.i, align 8
  %m_recogniser_name.i = getelementptr inbounds i8, ptr %call2, i64 32
  %8 = load i64, ptr %r, align 8
  store i64 %8, ptr %m_recogniser_name.i, align 8
  %m_accessors.i = getelementptr inbounds i8, ptr %call2, i64 40
  store ptr null, ptr %m_accessors.i, align 8
  %cmp3.not.i.i.i = icmp eq i32 %num, 0
  br i1 %cmp3.not.i.i.i, label %_ZN17pconstructor_declC2EjjR13pdecl_managerRK6symbolS4_jPKP14paccessor_decl.exit, label %for.body.preheader.i.i.i

for.body.preheader.i.i.i:                         ; preds = %_ZN6id_gen2mkEv.exit
  %wide.trip.count.i.i.i = zext i32 %num to i64
  br label %for.body.i.i.i

for.bodythread-pre-split.i.i.i:                   ; preds = %_ZN6vectorIP14paccessor_declLb0EjE9push_backERKS1_.exit.i.i.i
  %.pr.i.i.i = load ptr, ptr %m_accessors.i, align 8
  br label %for.body.i.i.i

for.body.i.i.i:                                   ; preds = %for.bodythread-pre-split.i.i.i, %for.body.preheader.i.i.i
  %9 = phi ptr [ %.pr.i.i.i, %for.bodythread-pre-split.i.i.i ], [ null, %for.body.preheader.i.i.i ]
  %indvars.iv.i.i.i = phi i64 [ %indvars.iv.next.i.i.i, %for.bodythread-pre-split.i.i.i ], [ 0, %for.body.preheader.i.i.i ]
  %arrayidx.i.i.i = getelementptr inbounds ptr, ptr %as, i64 %indvars.iv.i.i.i
  %cmp.i.i.i.i = icmp eq ptr %9, null
  br i1 %cmp.i.i.i.i, label %if.then.i.i.i.i, label %lor.lhs.false.i.i.i.i

lor.lhs.false.i.i.i.i:                            ; preds = %for.body.i.i.i
  %arrayidx.i.i.i.i = getelementptr inbounds i8, ptr %9, i64 -4
  %10 = load i32, ptr %arrayidx.i.i.i.i, align 4
  %arrayidx4.i.i.i.i = getelementptr inbounds i8, ptr %9, i64 -8
  %11 = load i32, ptr %arrayidx4.i.i.i.i, align 4
  %cmp5.i.i.i.i = icmp eq i32 %10, %11
  br i1 %cmp5.i.i.i.i, label %if.then.i.i.i.i, label %_ZN6vectorIP14paccessor_declLb0EjE9push_backERKS1_.exit.i.i.i

if.then.i.i.i.i:                                  ; preds = %lor.lhs.false.i.i.i.i, %for.body.i.i.i
  tail call void @_ZN6vectorIP14paccessor_declLb0EjE13expand_vectorEv(ptr noundef nonnull align 8 dereferenceable(8) %m_accessors.i)
  %.pre.i.i.i.i = load ptr, ptr %m_accessors.i, align 8
  %arrayidx8.phi.trans.insert.i.i.i.i = getelementptr inbounds i8, ptr %.pre.i.i.i.i, i64 -4
  %.pre1.i.i.i.i = load i32, ptr %arrayidx8.phi.trans.insert.i.i.i.i, align 4
  br label %_ZN6vectorIP14paccessor_declLb0EjE9push_backERKS1_.exit.i.i.i

_ZN6vectorIP14paccessor_declLb0EjE9push_backERKS1_.exit.i.i.i: ; preds = %if.then.i.i.i.i, %lor.lhs.false.i.i.i.i
  %12 = phi i32 [ %.pre1.i.i.i.i, %if.then.i.i.i.i ], [ %10, %lor.lhs.false.i.i.i.i ]
  %13 = phi ptr [ %.pre.i.i.i.i, %if.then.i.i.i.i ], [ %9, %lor.lhs.false.i.i.i.i ]
  %idx.ext.i.i.i.i = zext i32 %12 to i64
  %add.ptr.i.i.i.i = getelementptr inbounds ptr, ptr %13, i64 %idx.ext.i.i.i.i
  %14 = load ptr, ptr %arrayidx.i.i.i, align 8
  store ptr %14, ptr %add.ptr.i.i.i.i, align 8
  %15 = load ptr, ptr %m_accessors.i, align 8
  %arrayidx10.i.i.i.i = getelementptr inbounds i8, ptr %15, i64 -4
  %16 = load i32, ptr %arrayidx10.i.i.i.i, align 4
  %inc.i.i.i.i = add i32 %16, 1
  store i32 %inc.i.i.i.i, ptr %arrayidx10.i.i.i.i, align 4
  %indvars.iv.next.i.i.i = add nuw nsw i64 %indvars.iv.i.i.i, 1
  %exitcond.not.i.i.i = icmp eq i64 %indvars.iv.next.i.i.i, %wide.trip.count.i.i.i
  br i1 %exitcond.not.i.i.i, label %for.body.i.i, label %for.bodythread-pre-split.i.i.i, !llvm.loop !24

for.body.i.i:                                     ; preds = %_ZN6vectorIP14paccessor_declLb0EjE9push_backERKS1_.exit.i.i.i, %_ZN13pdecl_manager7inc_refEP5pdecl.exit.i.i
  %indvars.iv.i.i = phi i64 [ %indvars.iv.next.i.i, %_ZN13pdecl_manager7inc_refEP5pdecl.exit.i.i ], [ 0, %_ZN6vectorIP14paccessor_declLb0EjE9push_backERKS1_.exit.i.i.i ]
  %arrayidx.i.i1 = getelementptr inbounds ptr, ptr %as, i64 %indvars.iv.i.i
  %17 = load ptr, ptr %arrayidx.i.i1, align 8
  %tobool.not.i.i.i = icmp eq ptr %17, null
  br i1 %tobool.not.i.i.i, label %_ZN13pdecl_manager7inc_refEP5pdecl.exit.i.i, label %if.then.i.i.i

if.then.i.i.i:                                    ; preds = %for.body.i.i
  %m_ref_count.i.i.i.i = getelementptr inbounds i8, ptr %17, i64 16
  %18 = load i32, ptr %m_ref_count.i.i.i.i, align 8
  %inc.i.i.i4.i = add i32 %18, 1
  store i32 %inc.i.i.i4.i, ptr %m_ref_count.i.i.i.i, align 8
  br label %_ZN13pdecl_manager7inc_refEP5pdecl.exit.i.i

_ZN13pdecl_manager7inc_refEP5pdecl.exit.i.i:      ; preds = %if.then.i.i.i, %for.body.i.i
  %indvars.iv.next.i.i = add nuw nsw i64 %indvars.iv.i.i, 1
  %exitcond.not.i.i = icmp eq i64 %indvars.iv.next.i.i, %wide.trip.count.i.i.i
  br i1 %exitcond.not.i.i, label %_ZN17pconstructor_declC2EjjR13pdecl_managerRK6symbolS4_jPKP14paccessor_decl.exit, label %for.body.i.i, !llvm.loop !25

_ZN17pconstructor_declC2EjjR13pdecl_managerRK6symbolS4_jPKP14paccessor_decl.exit: ; preds = %_ZN13pdecl_manager7inc_refEP5pdecl.exit.i.i, %_ZN6id_gen2mkEv.exit
  ret ptr %call2
}